Certificate:
    Data:
        Version: 3 (0x2)
        Serial Number: 13135752980835099736 (0xb64b91bd67f46458)
    Signature Algorithm: sha256WithRSAEncryption
        Issuer: CN=Monaca
        Validity
            Not Before: Nov 25 15:46:46 2016 GMT
            Not After : Nov 25 15:46:46 2019 GMT
        Subject: CN=monaca-debug-app
        Subject Public Key Info:
            Public Key Algorithm: rsaEncryption
                Public-Key: (2048 bit)
                Modulus:
                    00:ce:69:6c:e9:f0:e5:ed:b7:cf:09:56:93:f7:f2:
                    ad:81:5c:ff:f2:28:a3:51:2e:f3:d4:e2:0a:a2:3e:
                    1c:a2:38:91:54:82:9c:d9:02:eb:99:52:1f:87:9d:
                    e8:c6:ed:42:0b:0d:6a:2d:1e:09:b4:38:c7:77:70:
                    64:ae:28:3b:84:c4:8a:5e:23:2f:81:f9:c0:2f:99:
                    06:b7:81:7b:9d:14:aa:91:8a:f1:57:1c:43:03:ba:
                    69:33:cb:e1:be:ad:57:a3:e5:09:1a:3b:49:ba:6e:
                    02:b7:09:a3:7c:59:2a:16:a4:24:f9:03:d3:8d:3f:
                    77:96:80:a6:1e:fc:ec:89:f3:9c:fd:66:94:1c:68:
                    9a:2a:25:7d:59:c0:f2:ba:3c:1c:11:12:08:67:2b:
                    19:cb:5b:67:75:74:7a:27:f8:cb:50:2a:a7:60:c8:
                    4e:e7:66:4a:1f:dc:5b:25:e6:cf:0b:9e:2c:7c:ff:
                    c9:07:9f:f4:79:f1:28:16:83:0b:1e:75:f0:3b:ce:
                    38:48:c2:73:d5:12:e4:d1:4d:0b:e6:2a:c6:90:50:
                    e1:81:39:e5:48:6c:46:90:db:23:a5:6e:24:0a:0f:
                    a3:04:1c:42:d9:b2:0a:43:71:f6:54:19:16:33:72:
                    d0:72:08:a7:43:2e:57:95:ba:a6:c3:eb:ec:4e:65:
                    61:67
                Exponent: 65537 (0x10001)
        X509v3 extensions:
            X509v3 Basic Constraints: 
                CA:FALSE
            Netscape Comment: 
                OpenSSL Generated Certificate
            X509v3 Subject Key Identifier: 
                61:4E:8F:F5:62:AC:C3:1C:45:BD:AB:94:EA:43:03:90:9D:93:20:C1
            X509v3 Authority Key Identifier: 
                keyid:E1:C2:82:2D:04:9F:BC:50:9C:53:B3:61:5B:6D:6F:70:F6:CA:4F:01

            X509v3 Extended Key Usage: 
                Code Signing
    Signature Algorithm: sha256WithRSAEncryption
         3f:43:93:bd:b9:92:28:17:39:66:ab:c3:54:6b:5c:f3:20:a1:
         46:1a:0e:f2:d6:cd:47:d8:84:45:ff:48:e6:d6:91:7d:e7:6e:
         89:a8:69:76:07:45:a1:8b:d0:dc:07:4d:29:4d:b2:94:ef:97:
         13:c6:22:ea:e6:a4:dd:95:8d:db:8b:8c:4d:71:3f:27:e1:d5:
         b6:f1:b0:0f:c1:d6:2f:6b:92:aa:df:5c:b9:99:b2:c3:27:e1:
         49:fa:a5:e2:13:a5:71:3a:51:d7:3f:0a:ef:f7:bd:a5:9c:86:
         b3:aa:df:4c:13:c1:4b:62:24:34:00:e0:3a:b7:c4:a2:60:16:
         b1:c6:d6:de:04:15:24:dc:fd:f3:78:17:d7:85:fe:0b:61:16:
         af:fa:9f:39:d3:eb:31:8b:7c:d2:ea:e2:ee:1a:76:51:6a:9a:
         33:8f:a5:c9:d7:89:20:ee:0d:fb:38:9b:5d:b1:94:54:ad:d5:
         24:5b:ff:74:25:46:ad:e4:6a:a6:b3:18:37:1c:15:7c:c7:43:
         db:c6:40:54:5e:c2:95:88:70:8d:5d:e3:0c:31:32:17:b8:8b:
         bf:f2:9b:be:4f:37:e4:bf:8b:93:61:0a:06:32:70:c9:38:50:
         8d:49:de:ad:5a:5d:68:55:c3:16:b1:57:ba:de:99:a2:89:7c:
         78:2b:61:03
-----BEGIN CERTIFICATE-----
MIIDQTCCAimgAwIBAgIJALZLkb1n9GRYMA0GCSqGSIb3DQEBCwUAMBExDzANBgNV
BAMTBk1vbmFjYTAeFw0xNjExMjUxNTQ2NDZaFw0xOTExMjUxNTQ2NDZaMBsxGTAX
BgNVBAMTEG1vbmFjYS1kZWJ1Zy1hcHAwggEiMA0GCSqGSIb3DQEBAQUAA4IBDwAw
ggEKAoIBAQDOaWzp8OXtt88JVpP38q2BXP/yKKNRLvPU4gqiPhyiOJFUgpzZAuuZ
Uh+HnejG7UILDWotHgm0OMd3cGSuKDuExIpeIy+B+cAvmQa3gXudFKqRivFXHEMD
umkzy+G+rVej5QkaO0m6bgK3CaN8WSoWpCT5A9ONP3eWgKYe/OyJ85z9ZpQcaJoq
JX1ZwPK6PBwREghnKxnLW2d1dHon+MtQKqdgyE7nZkof3Fsl5s8Lnix8/8kHn/R5
8SgWgwsedfA7zjhIwnPVEuTRTQvmKsaQUOGBOeVIbEaQ2yOlbiQKD6MEHELZsgpD
cfZUGRYzctByCKdDLleVuqbD6+xOZWFnAgMBAAGjgZEwgY4wCQYDVR0TBAIwADAs
BglghkgBhvhCAQ0EHxYdT3BlblNTTCBHZW5lcmF0ZWQgQ2VydGlmaWNhdGUwHQYD
VR0OBBYEFGFOj/VirMMcRb2rlOpDA5CdkyDBMB8GA1UdIwQYMBaAFOHCgi0En7xQ
nFOzYVttb3D2yk8BMBMGA1UdJQQMMAoGCCsGAQUFBwMDMA0GCSqGSIb3DQEBCwUA
A4IBAQA/Q5O9uZIoFzlmq8NUa1zzIKFGGg7y1s1H2IRF/0jm1pF9526JqGl2B0Wh
i9DcB00pTbKU75cTxiLq5qTdlY3bi4xNcT8n4dW28bAPwdYva5Kq31y5mbLDJ+FJ
+qXiE6VxOlHXPwrv972lnIazqt9ME8FLYiQ0AOA6t8SiYBaxxtbeBBUk3P3zeBfX
hf4LYRav+p850+sxi3zS6uLuGnZRapozj6XJ14kg7g37OJtdsZRUrdUkW/90JUat
5Gqmsxg3HBV8x0PbxkBUXsKViHCNXeMMMTIXuIu/8pu+Tzfkv4uTYQoGMnDJOFCN
Sd6tWl1oVcMWsVe63pmiiXx4K2ED
-----END CERTIFICATE-----
